; Function Attrs: nounwind uwtable
define internal ptr @ecdsa_gettable_ctx_md_params(ptr noundef readonly captures(none) %0) #0 {
  %2 = getelementptr inbounds nuw i8, ptr %0, i64 352
  %3 = load ptr, ptr %2, align 8, !tbaa !28
  %4 = icmp eq ptr %3, null
  br i1 %4, label %7, label %5

5:                                                ; preds = %1
  %6 = tail call ptr @EVP_MD_gettable_ctx_params(ptr noundef nonnull %3) #8
  br label %7

7:                                                ; preds = %1, %5
  %.0 = phi ptr [ %6, %5 ], [ null, %1 ]
  ret ptr %.0
}